; Function Attrs: mustprogress uwtable
define hidden void @_ZN5ceres8internal23ScratchEvaluatePreparer4InitEi(ptr noundef nonnull align 8 captures(none) dereferenceable(8) %0, i32 noundef %1) local_unnamed_addr #4 align 2 personality ptr @__gxx_personality_v0 {
  %3 = zext nneg i32 %1 to i64
  %4 = icmp slt i32 %1, 0
  %5 = shl nuw nsw i64 %3, 3
  %6 = select i1 %4, i64 -1, i64 %5
  %7 = tail call noalias noundef nonnull ptr @_Znam(i64 noundef %6) #11, !noalias !20
  tail call void @llvm.memset.p0.i64(ptr nonnull align 8 %7, i8 0, i64 %6, i1 false), !noalias !20
  %8 = load ptr, ptr %0, align 8, !tbaa !17
  store ptr %7, ptr %0, align 8, !tbaa !17
  %.not.i.i.i.i = icmp eq ptr %8, null
  br i1 %.not.i.i.i.i, label %_ZNSt10unique_ptrIA_dSt14default_deleteIS0_EED2Ev.exit, label %_ZNKSt14default_deleteIA_dEclIdEENSt9enable_ifIXsr14is_convertibleIPA_T_PS0_EE5valueEvE4typeEPS4_.exit.i.i.i.i

_ZNKSt14default_deleteIA_dEclIdEENSt9enable_ifIXsr14is_convertibleIPA_T_PS0_EE5valueEvE4typeEPS4_.exit.i.i.i.i: ; preds = %2
  tail call void @_ZdaPv(ptr noundef nonnull %8) #12
  br label %_ZNSt10unique_ptrIA_dSt14default_deleteIS0_EED2Ev.exit

_ZNSt10unique_ptrIA_dSt14default_deleteIS0_EED2Ev.exit: ; preds = %_ZNKSt14default_deleteIA_dEclIdEENSt9enable_ifIXsr14is_convertibleIPA_T_PS0_EE5valueEvE4typeEPS4_.exit.i.i.i.i, %2
  ret void
}